(dp1
S'failed'
p2
(lp3
S'1'
aS'2'
asS'source_names'
p4
(lp5
S'recipeBase/rb_test/rb_test.py'
p6
aS'recipeBase/rb_test/rb_test.py'
p7
aS'recipeBase/rb_test/rb_test.py:RbTestCase.test_if_logged_in'
p8
aS'recipeBase/rb_test/rb_test.py:RbTestCase.test_if_logged_in'
p9
aS'recipeBase/rb_test/rb_test.py:log_in_test_user'
p10
aS'recipeBase/rb_test/rb_test.py:log_in_test_user'
p11
aS'recipeBase/rb_test/rb_test.py:RbTestCase'
p12
aS'recipeBase/rb_test/rb_test.py:RbTestCase'
p13
asS'ids'
p14
(dp15
I1
(S'/home/smolander/dev/recipeBase/recipeBase/rb_test/rb_test.py'
S'recipeBase.rb_test.rb_test'
S'RbTestCase.test_if_logged_in'
tp16
sI2
(S'/home/smolander/dev/recipeBase/recipeBase/rb_test/rb_test.py'
S'recipeBase.rb_test.rb_test'
S'log_in_test_user'
tp17
ss.