(dp1
S'failed'
p2
(lp3
sS'source_names'
p4
(lp5
S'recipeBase/rb_test/rb_test.py'
p6
aS'recipeBase/rb_test/rb_test.py'
p7
aS'recipeBase/rb_test/rb_test.py:RbTestCase.test_if_logged_in'
p8
aS'recipeBase/rb_test/rb_test.py:RbTestCase.test_if_logged_in'
p9
asS'ids'
p10
(dp11
I1
(S'/home/smolander/dev/recipeBase/recipeBase/rb_test/rb_test.py'
S'recipeBase.rb_test.rb_test'
S'RbTestCase.test_if_logged_in'
tp12
ss.